target datalayout = "e-m:e-p270:32:32-p271:32:32-p272:64:64-i64:64-i128:128-f80:128-n8:16:32:64-S128"
target triple = "x86_64-pc-linux-gnu"

; Function Attrs: nounwind uwtable
define internal i32 @get_rounded_direction(i32 noundef %0, i32 noundef %1) #0 {
  %3 = alloca i32, align 4
  %4 = alloca i32, align 4
  %5 = alloca i32, align 4
  %6 = alloca i32, align 4
  %7 = alloca i32, align 4
  %8 = alloca i32, align 4
  store i32 %0, ptr %4, align 4, !tbaa !4
  store i32 %1, ptr %5, align 4, !tbaa !4
  %9 = load i32, ptr %4, align 4, !tbaa !4
  %10 = icmp ne i32 %9, 0
  br i1 %10, label %11, label %59

11:                                               ; preds = %2
  call void @llvm.lifetime.start.p0(i64 4, ptr %6) #4
  call void @llvm.lifetime.start.p0(i64 4, ptr %7) #4
  %12 = load i32, ptr %4, align 4, !tbaa !4
  %13 = icmp slt i32 %12, 0
  br i1 %13, label %14, label %19

14:                                               ; preds = %11
  %15 = load i32, ptr %4, align 4, !tbaa !4
  %16 = sub nsw i32 0, %15
  store i32 %16, ptr %4, align 4, !tbaa !4
  %17 = load i32, ptr %5, align 4, !tbaa !4
  %18 = sub nsw i32 0, %17
  store i32 %18, ptr %5, align 4, !tbaa !4
  br label %19

19:                                               ; preds = %14, %11
  %20 = load i32, ptr %5, align 4, !tbaa !4
  %21 = mul nsw i32 %20, 65536
  store i32 %21, ptr %5, align 4, !tbaa !4
  %22 = load i32, ptr %4, align 4, !tbaa !4
  %23 = mul nsw i32 27146, %22
  store i32 %23, ptr %6, align 4, !tbaa !4
  %24 = load i32, ptr %4, align 4, !tbaa !4
  %25 = mul nsw i32 158218, %24
  store i32 %25, ptr %7, align 4, !tbaa !4
  %26 = load i32, ptr %5, align 4, !tbaa !4
  %27 = load i32, ptr %7, align 4, !tbaa !4
  %28 = sub nsw i32 0, %27
  %29 = icmp sgt i32 %26, %28
  br i1 %29, label %30, label %36

30:                                               ; preds = %19
  %31 = load i32, ptr %5, align 4, !tbaa !4
  %32 = load i32, ptr %6, align 4, !tbaa !4
  %33 = sub nsw i32 0, %32
  %34 = icmp slt i32 %31, %33
  br i1 %34, label %35, label %36

35:                                               ; preds = %30
  store i32 0, ptr %3, align 4
  store i32 1, ptr %8, align 4
  br label %56

36:                                               ; preds = %30, %19
  %37 = load i32, ptr %5, align 4, !tbaa !4
  %38 = load i32, ptr %6, align 4, !tbaa !4
  %39 = sub nsw i32 0, %38
  %40 = icmp sgt i32 %37, %39
  br i1 %40, label %41, label %46

41:                                               ; preds = %36
  %42 = load i32, ptr %5, align 4, !tbaa !4
  %43 = load i32, ptr %6, align 4, !tbaa !4
  %44 = icmp slt i32 %42, %43
  br i1 %44, label %45, label %46

45:                                               ; preds = %41
  store i32 2, ptr %3, align 4
  store i32 1, ptr %8, align 4
  br label %56

46:                                               ; preds = %41, %36
  %47 = load i32, ptr %5, align 4, !tbaa !4
  %48 = load i32, ptr %6, align 4, !tbaa !4
  %49 = icmp sgt i32 %47, %48
  br i1 %49, label %50, label %55

50:                                               ; preds = %46
  %51 = load i32, ptr %5, align 4, !tbaa !4
  %52 = load i32, ptr %7, align 4, !tbaa !4
  %53 = icmp slt i32 %51, %52
  br i1 %53, label %54, label %55

54:                                               ; preds = %50
  store i32 1, ptr %3, align 4
  store i32 1, ptr %8, align 4
  br label %56

55:                                               ; preds = %50, %46
  store i32 0, ptr %8, align 4
  br label %56

56:                                               ; preds = %55, %54, %45, %35
  call void @llvm.lifetime.end.p0(i64 4, ptr %7) #4
  call void @llvm.lifetime.end.p0(i64 4, ptr %6) #4
  %57 = load i32, ptr %8, align 4
  switch i32 %57, label %62 [
    i32 0, label %58
    i32 1, label %60
  ]

58:                                               ; preds = %56
  br label %59

59:                                               ; preds = %58, %2
  store i32 3, ptr %3, align 4
  br label %60

60:                                               ; preds = %59, %56
  %61 = load i32, ptr %3, align 4
  ret i32 %61

62:                                               ; preds = %56
  unreachable
}

; Function Attrs: nounwind uwtable
define void @ff_sobel_16(i32 noundef %0, i32 noundef %1, ptr noundef %2, i32 noundef %3, ptr noundef %4, i32 noundef %5, ptr noundef %6, i32 noundef %7, i32 noundef %8) #0 {
  %10 = alloca i32, align 4
  %11 = alloca i32, align 4
  %12 = alloca ptr, align 8
  %13 = alloca i32, align 4
  %14 = alloca ptr, align 8
  %15 = alloca i32, align 4
  %16 = alloca ptr, align 8
  %17 = alloca i32, align 4
  %18 = alloca i32, align 4
  %19 = alloca ptr, align 8
  %20 = alloca i32, align 4
  %21 = alloca i32, align 4
  %22 = alloca i32, align 4
  %23 = alloca i32, align 4
  %24 = alloca i32, align 4
  store i32 %0, ptr %10, align 4, !tbaa !4
  store i32 %1, ptr %11, align 4, !tbaa !4
  store ptr %2, ptr %12, align 8, !tbaa !8
  store i32 %3, ptr %13, align 4, !tbaa !4
  store ptr %4, ptr %14, align 8, !tbaa !11
  store i32 %5, ptr %15, align 4, !tbaa !4
  store ptr %6, ptr %16, align 8, !tbaa !11
  store i32 %7, ptr %17, align 4, !tbaa !4
  store i32 %8, ptr %18, align 4, !tbaa !4
  call void @llvm.lifetime.start.p0(i64 8, ptr %19) #4
  %25 = load ptr, ptr %16, align 8, !tbaa !11
  store ptr %25, ptr %19, align 8, !tbaa !8
  %26 = load i32, ptr %18, align 4, !tbaa !4
  %27 = sext i32 %26 to i64
  %28 = udiv i64 %27, 2
  %29 = trunc i64 %28 to i32
  store i32 %29, ptr %18, align 4, !tbaa !4
  %30 = load i32, ptr %17, align 4, !tbaa !4
  %31 = sext i32 %30 to i64
  %32 = udiv i64 %31, 2
  %33 = trunc i64 %32 to i32
  store i32 %33, ptr %17, align 4, !tbaa !4
  %34 = load i32, ptr %13, align 4, !tbaa !4
  %35 = sext i32 %34 to i64
  %36 = udiv i64 %35, 2
  %37 = trunc i64 %36 to i32
  store i32 %37, ptr %13, align 4, !tbaa !4
  call void @llvm.lifetime.start.p0(i64 4, ptr %20) #4
  store i32 1, ptr %20, align 4, !tbaa !4
  br label %38

38:                                               ; preds = %253, %9
  %39 = load i32, ptr %20, align 4, !tbaa !4
  %40 = load i32, ptr %11, align 4, !tbaa !4
  %41 = sub nsw i32 %40, 1
  %42 = icmp slt i32 %39, %41
  br i1 %42, label %44, label %43

43:                                               ; preds = %38
  store i32 2, ptr %21, align 4
  call void @llvm.lifetime.end.p0(i64 4, ptr %20) #4
  br label %256

44:                                               ; preds = %38
  %45 = load i32, ptr %13, align 4, !tbaa !4
  %46 = load ptr, ptr %12, align 8, !tbaa !8
  %47 = sext i32 %45 to i64
  %48 = getelementptr inbounds i16, ptr %46, i64 %47
  store ptr %48, ptr %12, align 8, !tbaa !8
  %49 = load i32, ptr %15, align 4, !tbaa !4
  %50 = load ptr, ptr %14, align 8, !tbaa !11
  %51 = sext i32 %49 to i64
  %52 = getelementptr inbounds i8, ptr %50, i64 %51
  store ptr %52, ptr %14, align 8, !tbaa !11
  %53 = load i32, ptr %17, align 4, !tbaa !4
  %54 = load ptr, ptr %19, align 8, !tbaa !8
  %55 = sext i32 %53 to i64
  %56 = getelementptr inbounds i16, ptr %54, i64 %55
  store ptr %56, ptr %19, align 8, !tbaa !8
  call void @llvm.lifetime.start.p0(i64 4, ptr %22) #4
  store i32 1, ptr %22, align 4, !tbaa !4
  br label %57

57:                                               ; preds = %249, %44
  %58 = load i32, ptr %22, align 4, !tbaa !4
  %59 = load i32, ptr %10, align 4, !tbaa !4
  %60 = sub nsw i32 %59, 1
  %61 = icmp slt i32 %58, %60
  br i1 %61, label %63, label %62

62:                                               ; preds = %57
  store i32 5, ptr %21, align 4
  call void @llvm.lifetime.end.p0(i64 4, ptr %22) #4
  br label %252

63:                                               ; preds = %57
  call void @llvm.lifetime.start.p0(i64 4, ptr %23) #4
  %64 = load ptr, ptr %19, align 8, !tbaa !8
  %65 = load i32, ptr %17, align 4, !tbaa !4
  %66 = sub nsw i32 0, %65
  %67 = load i32, ptr %22, align 4, !tbaa !4
  %68 = sub nsw i32 %67, 1
  %69 = load i32, ptr %18, align 4, !tbaa !4
  %70 = mul nsw i32 %68, %69
  %71 = add nsw i32 %66, %70
  %72 = sext i32 %71 to i64
  %73 = getelementptr inbounds i16, ptr %64, i64 %72
  %74 = load i16, ptr %73, align 2, !tbaa !14
  %75 = zext i16 %74 to i32
  %76 = mul nsw i32 -1, %75
  %77 = load ptr, ptr %19, align 8, !tbaa !8
  %78 = load i32, ptr %17, align 4, !tbaa !4
  %79 = sub nsw i32 0, %78
  %80 = load i32, ptr %22, align 4, !tbaa !4
  %81 = add nsw i32 %80, 1
  %82 = load i32, ptr %18, align 4, !tbaa !4
  %83 = mul nsw i32 %81, %82
  %84 = add nsw i32 %79, %83
  %85 = sext i32 %84 to i64
  %86 = getelementptr inbounds i16, ptr %77, i64 %85
  %87 = load i16, ptr %86, align 2, !tbaa !14
  %88 = zext i16 %87 to i32
  %89 = mul nsw i32 1, %88
  %90 = add nsw i32 %76, %89
  %91 = load ptr, ptr %19, align 8, !tbaa !8
  %92 = load i32, ptr %22, align 4, !tbaa !4
  %93 = sub nsw i32 %92, 1
  %94 = load i32, ptr %18, align 4, !tbaa !4
  %95 = mul nsw i32 %93, %94
  %96 = sext i32 %95 to i64
  %97 = getelementptr inbounds i16, ptr %91, i64 %96
  %98 = load i16, ptr %97, align 2, !tbaa !14
  %99 = zext i16 %98 to i32
  %100 = mul nsw i32 2, %99
  %101 = sub nsw i32 %90, %100
  %102 = load ptr, ptr %19, align 8, !tbaa !8
  %103 = load i32, ptr %22, align 4, !tbaa !4
  %104 = add nsw i32 %103, 1
  %105 = load i32, ptr %18, align 4, !tbaa !4
  %106 = mul nsw i32 %104, %105
  %107 = sext i32 %106 to i64
  %108 = getelementptr inbounds i16, ptr %102, i64 %107
  %109 = load i16, ptr %108, align 2, !tbaa !14
  %110 = zext i16 %109 to i32
  %111 = mul nsw i32 2, %110
  %112 = add nsw i32 %101, %111
  %113 = load ptr, ptr %19, align 8, !tbaa !8
  %114 = load i32, ptr %17, align 4, !tbaa !4
  %115 = load i32, ptr %22, align 4, !tbaa !4
  %116 = sub nsw i32 %115, 1
  %117 = load i32, ptr %18, align 4, !tbaa !4
  %118 = mul nsw i32 %116, %117
  %119 = add nsw i32 %114, %118
  %120 = sext i32 %119 to i64
  %121 = getelementptr inbounds i16, ptr %113, i64 %120
  %122 = load i16, ptr %121, align 2, !tbaa !14
  %123 = zext i16 %122 to i32
  %124 = mul nsw i32 1, %123
  %125 = sub nsw i32 %112, %124
  %126 = load ptr, ptr %19, align 8, !tbaa !8
  %127 = load i32, ptr %17, align 4, !tbaa !4
  %128 = load i32, ptr %22, align 4, !tbaa !4
  %129 = add nsw i32 %128, 1
  %130 = load i32, ptr %18, align 4, !tbaa !4
  %131 = mul nsw i32 %129, %130
  %132 = add nsw i32 %127, %131
  %133 = sext i32 %132 to i64
  %134 = getelementptr inbounds i16, ptr %126, i64 %133
  %135 = load i16, ptr %134, align 2, !tbaa !14
  %136 = zext i16 %135 to i32
  %137 = mul nsw i32 1, %136
  %138 = add nsw i32 %125, %137
  store i32 %138, ptr %23, align 4, !tbaa !4
  call void @llvm.lifetime.start.p0(i64 4, ptr %24) #4
  %139 = load ptr, ptr %19, align 8, !tbaa !8
  %140 = load i32, ptr %17, align 4, !tbaa !4
  %141 = sub nsw i32 0, %140
  %142 = load i32, ptr %22, align 4, !tbaa !4
  %143 = sub nsw i32 %142, 1
  %144 = load i32, ptr %18, align 4, !tbaa !4
  %145 = mul nsw i32 %143, %144
  %146 = add nsw i32 %141, %145
  %147 = sext i32 %146 to i64
  %148 = getelementptr inbounds i16, ptr %139, i64 %147
  %149 = load i16, ptr %148, align 2, !tbaa !14
  %150 = zext i16 %149 to i32
  %151 = mul nsw i32 -1, %150
  %152 = load ptr, ptr %19, align 8, !tbaa !8
  %153 = load i32, ptr %17, align 4, !tbaa !4
  %154 = load i32, ptr %22, align 4, !tbaa !4
  %155 = sub nsw i32 %154, 1
  %156 = load i32, ptr %18, align 4, !tbaa !4
  %157 = mul nsw i32 %155, %156
  %158 = add nsw i32 %153, %157
  %159 = sext i32 %158 to i64
  %160 = getelementptr inbounds i16, ptr %152, i64 %159
  %161 = load i16, ptr %160, align 2, !tbaa !14
  %162 = zext i16 %161 to i32
  %163 = mul nsw i32 1, %162
  %164 = add nsw i32 %151, %163
  %165 = load ptr, ptr %19, align 8, !tbaa !8
  %166 = load i32, ptr %17, align 4, !tbaa !4
  %167 = sub nsw i32 0, %166
  %168 = load i32, ptr %22, align 4, !tbaa !4
  %169 = load i32, ptr %18, align 4, !tbaa !4
  %170 = mul nsw i32 %168, %169
  %171 = add nsw i32 %167, %170
  %172 = sext i32 %171 to i64
  %173 = getelementptr inbounds i16, ptr %165, i64 %172
  %174 = load i16, ptr %173, align 2, !tbaa !14
  %175 = zext i16 %174 to i32
  %176 = mul nsw i32 2, %175
  %177 = sub nsw i32 %164, %176
  %178 = load ptr, ptr %19, align 8, !tbaa !8
  %179 = load i32, ptr %17, align 4, !tbaa !4
  %180 = load i32, ptr %22, align 4, !tbaa !4
  %181 = load i32, ptr %18, align 4, !tbaa !4
  %182 = mul nsw i32 %180, %181
  %183 = add nsw i32 %179, %182
  %184 = sext i32 %183 to i64
  %185 = getelementptr inbounds i16, ptr %178, i64 %184
  %186 = load i16, ptr %185, align 2, !tbaa !14
  %187 = zext i16 %186 to i32
  %188 = mul nsw i32 2, %187
  %189 = add nsw i32 %177, %188
  %190 = load ptr, ptr %19, align 8, !tbaa !8
  %191 = load i32, ptr %17, align 4, !tbaa !4
  %192 = sub nsw i32 0, %191
  %193 = load i32, ptr %22, align 4, !tbaa !4
  %194 = add nsw i32 %193, 1
  %195 = load i32, ptr %18, align 4, !tbaa !4
  %196 = mul nsw i32 %194, %195
  %197 = add nsw i32 %192, %196
  %198 = sext i32 %197 to i64
  %199 = getelementptr inbounds i16, ptr %190, i64 %198
  %200 = load i16, ptr %199, align 2, !tbaa !14
  %201 = zext i16 %200 to i32
  %202 = mul nsw i32 1, %201
  %203 = sub nsw i32 %189, %202
  %204 = load ptr, ptr %19, align 8, !tbaa !8
  %205 = load i32, ptr %17, align 4, !tbaa !4
  %206 = load i32, ptr %22, align 4, !tbaa !4
  %207 = add nsw i32 %206, 1
  %208 = load i32, ptr %18, align 4, !tbaa !4
  %209 = mul nsw i32 %207, %208
  %210 = add nsw i32 %205, %209
  %211 = sext i32 %210 to i64
  %212 = getelementptr inbounds i16, ptr %204, i64 %211
  %213 = load i16, ptr %212, align 2, !tbaa !14
  %214 = zext i16 %213 to i32
  %215 = mul nsw i32 1, %214
  %216 = add nsw i32 %203, %215
  store i32 %216, ptr %24, align 4, !tbaa !4
  %217 = load i32, ptr %23, align 4, !tbaa !4
  %218 = icmp sge i32 %217, 0
  br i1 %218, label %219, label %221

219:                                              ; preds = %63
  %220 = load i32, ptr %23, align 4, !tbaa !4
  br label %224

221:                                              ; preds = %63
  %222 = load i32, ptr %23, align 4, !tbaa !4
  %223 = sub nsw i32 0, %222
  br label %224

224:                                              ; preds = %221, %219
  %225 = phi i32 [ %220, %219 ], [ %223, %221 ]
  %226 = load i32, ptr %24, align 4, !tbaa !4
  %227 = icmp sge i32 %226, 0
  br i1 %227, label %228, label %230

228:                                              ; preds = %224
  %229 = load i32, ptr %24, align 4, !tbaa !4
  br label %233

230:                                              ; preds = %224
  %231 = load i32, ptr %24, align 4, !tbaa !4
  %232 = sub nsw i32 0, %231
  br label %233

233:                                              ; preds = %230, %228
  %234 = phi i32 [ %229, %228 ], [ %232, %230 ]
  %235 = add nsw i32 %225, %234
  %236 = trunc i32 %235 to i16
  %237 = load ptr, ptr %12, align 8, !tbaa !8
  %238 = load i32, ptr %22, align 4, !tbaa !4
  %239 = sext i32 %238 to i64
  %240 = getelementptr inbounds i16, ptr %237, i64 %239
  store i16 %236, ptr %240, align 2, !tbaa !14
  %241 = load i32, ptr %23, align 4, !tbaa !4
  %242 = load i32, ptr %24, align 4, !tbaa !4
  %243 = call i32 @get_rounded_direction(i32 noundef %241, i32 noundef %242)
  %244 = trunc i32 %243 to i8
  %245 = load ptr, ptr %14, align 8, !tbaa !11
  %246 = load i32, ptr %22, align 4, !tbaa !4
  %247 = sext i32 %246 to i64
  %248 = getelementptr inbounds i8, ptr %245, i64 %247
  store i8 %244, ptr %248, align 1, !tbaa !13
  call void @llvm.lifetime.end.p0(i64 4, ptr %24) #4
  call void @llvm.lifetime.end.p0(i64 4, ptr %23) #4
  br label %249

249:                                              ; preds = %233
  %250 = load i32, ptr %22, align 4, !tbaa !4
  %251 = add nsw i32 %250, 1
  store i32 %251, ptr %22, align 4, !tbaa !4
  br label %57, !llvm.loop !25

252:                                              ; preds = %62
  br label %253

253:                                              ; preds = %252
  %254 = load i32, ptr %20, align 4, !tbaa !4
  %255 = add nsw i32 %254, 1
  store i32 %255, ptr %20, align 4, !tbaa !4
  br label %38, !llvm.loop !26

256:                                              ; preds = %43
  call void @llvm.lifetime.end.p0(i64 8, ptr %19) #4
  ret void
}