; Function Attrs: nofree norecurse nosync nounwind memory(argmem: readwrite) uwtable
define void @ff_sobel_16(i32 noundef %0, i32 noundef %1, ptr noundef writeonly captures(none) %2, i32 noundef %3, ptr noundef writeonly captures(none) %4, i32 noundef %5, ptr noundef readonly captures(none) %6, i32 noundef %7, i32 noundef %8) local_unnamed_addr #0 {
  %10 = ashr i32 %8, 1
  %11 = icmp sgt i32 %1, 2
  br i1 %11, label %.lr.ph94, label %._crit_edge95

.lr.ph94:                                         ; preds = %9
  %12 = ashr i32 %7, 1
  %13 = ashr i32 %3, 1
  %14 = sext i32 %13 to i64
  %15 = sext i32 %5 to i64
  %16 = sext i32 %12 to i64
  %17 = icmp sgt i32 %0, 2
  br i1 %17, label %.lr.ph.us.preheader, label %._crit_edge95

.lr.ph.us.preheader:                              ; preds = %.lr.ph94
  %18 = add nsw i32 %0, -1
  %19 = sext i32 %10 to i64
  %wide.trip.count = zext i32 %18 to i64
  %20 = add nsw i32 %1, -2
  br label %.lr.ph.us

.lr.ph.us:                                        ; preds = %.lr.ph.us.preheader, %._crit_edge.us
  %.092.us = phi ptr [ %21, %._crit_edge.us ], [ %2, %.lr.ph.us.preheader ]
  %.07491.us = phi i32 [ %81, %._crit_edge.us ], [ 1, %.lr.ph.us.preheader ]
  %.07590.us = phi ptr [ %23, %._crit_edge.us ], [ %6, %.lr.ph.us.preheader ]
  %.07689.us = phi ptr [ %22, %._crit_edge.us ], [ %4, %.lr.ph.us.preheader ]
  %21 = getelementptr inbounds i16, ptr %.092.us, i64 %14
  %22 = getelementptr inbounds i8, ptr %.07689.us, i64 %15
  %23 = getelementptr inbounds i16, ptr %.07590.us, i64 %16
  %invariant.gep = getelementptr i16, ptr %23, i64 %16
  %invariant.gep99 = getelementptr i16, ptr %23, i64 %16
  %invariant.gep101 = getelementptr i16, ptr %23, i64 %16
  br label %24

24:                                               ; preds = %.lr.ph.us, %get_rounded_direction.exit.us
  %indvars.iv = phi i64 [ 1, %.lr.ph.us ], [ %indvars.iv.next, %get_rounded_direction.exit.us ]
  %25 = add nsw i64 %indvars.iv, -1
  %26 = mul nsw i64 %25, %19
  %27 = getelementptr inbounds i16, ptr %.07590.us, i64 %26
  %28 = load i16, ptr %27, align 2, !tbaa !7
  %29 = zext i16 %28 to i32
  %indvars.iv.next = add nuw nsw i64 %indvars.iv, 1
  %30 = mul nsw i64 %indvars.iv.next, %19
  %31 = getelementptr inbounds i16, ptr %.07590.us, i64 %30
  %32 = load i16, ptr %31, align 2, !tbaa !7
  %33 = zext i16 %32 to i32
  %34 = getelementptr inbounds i16, ptr %23, i64 %26
  %35 = load i16, ptr %34, align 2, !tbaa !7
  %36 = zext i16 %35 to i32
  %37 = getelementptr inbounds i16, ptr %23, i64 %30
  %38 = load i16, ptr %37, align 2, !tbaa !7
  %39 = zext i16 %38 to i32
  %gep = getelementptr i16, ptr %invariant.gep, i64 %26
  %40 = load i16, ptr %gep, align 2, !tbaa !7
  %41 = zext i16 %40 to i32
  %gep100 = getelementptr i16, ptr %invariant.gep99, i64 %30
  %42 = load i16, ptr %gep100, align 2, !tbaa !7
  %43 = zext i16 %42 to i32
  %reass.add.us = sub nsw i32 %39, %36
  %reass.mul.us = shl nsw i32 %reass.add.us, 1
  %44 = add nuw nsw i32 %29, %41
  %45 = sub nsw i32 %33, %44
  %46 = add nsw i32 %45, %43
  %47 = add nsw i32 %46, %reass.mul.us
  %48 = mul nsw i64 %indvars.iv, %19
  %49 = getelementptr inbounds i16, ptr %.07590.us, i64 %48
  %50 = load i16, ptr %49, align 2, !tbaa !7
  %51 = zext i16 %50 to i32
  %gep102 = getelementptr i16, ptr %invariant.gep101, i64 %48
  %52 = load i16, ptr %gep102, align 2, !tbaa !7
  %53 = zext i16 %52 to i32
  %reass.add86.us = sub nsw i32 %53, %51
  %reass.mul87.us = shl nsw i32 %reass.add86.us, 1
  %54 = add nuw nsw i32 %33, %29
  %55 = sub nsw i32 %41, %54
  %56 = add nsw i32 %55, %43
  %57 = add nsw i32 %56, %reass.mul87.us
  %58 = tail call i32 @llvm.abs.i32(i32 %47, i1 true)
  %59 = tail call i32 @llvm.abs.i32(i32 %57, i1 true)
  %60 = add nuw nsw i32 %59, %58
  %61 = trunc i32 %60 to i16
  %62 = getelementptr inbounds nuw i16, ptr %21, i64 %indvars.iv
  store i16 %61, ptr %62, align 2, !tbaa !7
  %.not.i.us = icmp eq i32 %47, 0
  br i1 %.not.i.us, label %79, label %63

63:                                               ; preds = %24
  %64 = icmp slt i32 %47, 0
  %65 = sub nsw i32 0, %57
  %.023.i.us = select i1 %64, i32 %65, i32 %57
  %66 = shl nsw i32 %.023.i.us, 16
  %67 = mul nuw nsw i32 %58, 27146
  %68 = mul nuw nsw i32 %58, 158218
  %69 = sub nsw i32 0, %68
  %70 = icmp sgt i32 %66, %69
  %71 = sub nsw i32 0, %67
  %72 = icmp slt i32 %66, %71
  %or.cond.i.us = select i1 %70, i1 %72, i1 false
  br i1 %or.cond.i.us, label %get_rounded_direction.exit.us, label %73

73:                                               ; preds = %63
  %74 = icmp sgt i32 %66, %71
  %75 = icmp slt i32 %66, %67
  %or.cond28.i.us = and i1 %74, %75
  br i1 %or.cond28.i.us, label %get_rounded_direction.exit.us, label %76

76:                                               ; preds = %73
  %77 = icmp sle i32 %66, %67
  %78 = icmp sge i32 %66, %68
  %or.cond29.not.i.us = or i1 %77, %78
  br i1 %or.cond29.not.i.us, label %79, label %get_rounded_direction.exit.us

79:                                               ; preds = %76, %24
  br label %get_rounded_direction.exit.us

get_rounded_direction.exit.us:                    ; preds = %79, %76, %73, %63
  %.1.i.us = phi i8 [ 1, %76 ], [ 3, %79 ], [ 2, %73 ], [ 0, %63 ]
  %80 = getelementptr inbounds nuw i8, ptr %22, i64 %indvars.iv
  store i8 %.1.i.us, ptr %80, align 1, !tbaa !4
  %exitcond.not = icmp eq i64 %indvars.iv.next, %wide.trip.count
  br i1 %exitcond.not, label %._crit_edge.us, label %24, !llvm.loop !18

._crit_edge.us:                                   ; preds = %get_rounded_direction.exit.us
  %81 = add nuw nsw i32 %.07491.us, 1
  %exitcond98.not = icmp eq i32 %.07491.us, %20
  br i1 %exitcond98.not, label %._crit_edge95, label %.lr.ph.us, !llvm.loop !19

._crit_edge95:                                    ; preds = %._crit_edge.us, %.lr.ph94, %9
  ret void
}